; ModuleID = '58/1194.c'
source_filename = "58/1194.c"
target datalayout = "e-m:e-p270:32:32-p271:32:32-p272:64:64-i64:64-f80:128-n8:16:32:64-S128"
target triple = "x86_64-pc-linux-gnu"

@.str = private unnamed_addr constant [3 x i8] c"%d\00", align 1
@.str.1 = private unnamed_addr constant [3 x i8] c"0\0A\00", align 1
@.str.2 = private unnamed_addr constant [3 x i8] c"1\0A\00", align 1

; Function Attrs: noinline nounwind uwtable
define dso_local i32 @main() #0 {
  %1 = alloca i32, align 4
  %2 = alloca i32, align 4
  %3 = alloca i32, align 4
  %4 = alloca i32, align 4
  %5 = alloca i32, align 4
  %6 = alloca [90 x i8], align 16
  %7 = alloca [2 x i8], align 1
  store i32 0, i32* %1, align 4
  %8 = call i32 (i8*, ...) @__isoc99_scanf(i8* getelementptr inbounds ([3 x i8], [3 x i8]* @.str, i64 0, i64 0), i32* %2)
  %9 = getelementptr inbounds [2 x i8], [2 x i8]* %7, i64 0, i64 0
  %10 = call i32 (i8*, ...) bitcast (i32 (...)* @gets to i32 (i8*, ...)*)(i8* %9)
  store i32 0, i32* %3, align 4
  br label %11

11:                                               ; preds = %126, %0
  %12 = load i32, i32* %3, align 4
  %13 = load i32, i32* %2, align 4
  %14 = icmp slt i32 %12, %13
  br i1 %14, label %15, label %129

15:                                               ; preds = %11
  %16 = getelementptr inbounds [90 x i8], [90 x i8]* %6, i64 0, i64 0
  %17 = call i32 (i8*, ...) bitcast (i32 (...)* @gets to i32 (i8*, ...)*)(i8* %16)
  %18 = getelementptr inbounds [90 x i8], [90 x i8]* %6, i64 0, i64 0
  %19 = call i64 @strlen(i8* %18) #3
  %20 = trunc i64 %19 to i32
  store i32 %20, i32* %4, align 4
  store i32 0, i32* %5, align 4
  br label %21

21:                                               ; preds = %116, %15
  %22 = load i32, i32* %5, align 4
  %23 = load i32, i32* %4, align 4
  %24 = icmp slt i32 %22, %23
  br i1 %24, label %25, label %119

25:                                               ; preds = %21
  %26 = load i32, i32* %5, align 4
  %27 = icmp eq i32 %26, 0
  br i1 %27, label %28, label %66

28:                                               ; preds = %25
  %29 = load i32, i32* %5, align 4
  %30 = sext i32 %29 to i64
  %31 = getelementptr inbounds [90 x i8], [90 x i8]* %6, i64 0, i64 %30
  %32 = load i8, i8* %31, align 1
  %33 = sext i8 %32 to i32
  %34 = icmp eq i32 %33, 95
  br i1 %34, label %63, label %35

35:                                               ; preds = %28
  %36 = load i32, i32* %5, align 4
  %37 = sext i32 %36 to i64
  %38 = getelementptr inbounds [90 x i8], [90 x i8]* %6, i64 0, i64 %37
  %39 = load i8, i8* %38, align 1
  %40 = sext i8 %39 to i32
  %41 = icmp sge i32 %40, 97
  br i1 %41, label %42, label %49

42:                                               ; preds = %35
  %43 = load i32, i32* %5, align 4
  %44 = sext i32 %43 to i64
  %45 = getelementptr inbounds [90 x i8], [90 x i8]* %6, i64 0, i64 %44
  %46 = load i8, i8* %45, align 1
  %47 = sext i8 %46 to i32
  %48 = icmp sle i32 %47, 122
  br i1 %48, label %63, label %49

49:                                               ; preds = %42, %35
  %50 = load i32, i32* %5, align 4
  %51 = sext i32 %50 to i64
  %52 = getelementptr inbounds [90 x i8], [90 x i8]* %6, i64 0, i64 %51
  %53 = load i8, i8* %52, align 1
  %54 = sext i8 %53 to i32
  %55 = icmp sge i32 %54, 65
  br i1 %55, label %56, label %64

56:                                               ; preds = %49
  %57 = load i32, i32* %5, align 4
  %58 = sext i32 %57 to i64
  %59 = getelementptr inbounds [90 x i8], [90 x i8]* %6, i64 0, i64 %58
  %60 = load i8, i8* %59, align 1
  %61 = sext i8 %60 to i32
  %62 = icmp sle i32 %61, 90
  br i1 %62, label %63, label %64

63:                                               ; preds = %56, %42, %28
  br label %116

64:                                               ; preds = %56, %49
  %65 = call i32 (i8*, ...) @printf(i8* getelementptr inbounds ([3 x i8], [3 x i8]* @.str.1, i64 0, i64 0))
  br label %119

66:                                               ; preds = %25
  %67 = load i32, i32* %5, align 4
  %68 = sext i32 %67 to i64
  %69 = getelementptr inbounds [90 x i8], [90 x i8]* %6, i64 0, i64 %68
  %70 = load i8, i8* %69, align 1
  %71 = sext i8 %70 to i32
  %72 = icmp eq i32 %71, 95
  br i1 %72, label %113, label %73

73:                                               ; preds = %66
  %74 = load i32, i32* %5, align 4
  %75 = sext i32 %74 to i64
  %76 = getelementptr inbounds [90 x i8], [90 x i8]* %6, i64 0, i64 %75
  %77 = load i8, i8* %76, align 1
  %78 = sext i8 %77 to i32
  %79 = icmp sge i32 %78, 97
  br i1 %79, label %80, label %85

80:                                               ; preds = %73
  %81 = getelementptr inbounds [90 x i8], [90 x i8]* %6, i64 0, i64 0
  %82 = load i8, i8* %81, align 16
  %83 = sext i8 %82 to i32
  %84 = icmp sle i32 %83, 122
  br i1 %84, label %113, label %85

85:                                               ; preds = %80, %73
  %86 = load i32, i32* %5, align 4
  %87 = sext i32 %86 to i64
  %88 = getelementptr inbounds [90 x i8], [90 x i8]* %6, i64 0, i64 %87
  %89 = load i8, i8* %88, align 1
  %90 = sext i8 %89 to i32
  %91 = icmp sge i32 %90, 65
  br i1 %91, label %92, label %99

92:                                               ; preds = %85
  %93 = load i32, i32* %5, align 4
  %94 = sext i32 %93 to i64
  %95 = getelementptr inbounds [90 x i8], [90 x i8]* %6, i64 0, i64 %94
  %96 = load i8, i8* %95, align 1
  %97 = sext i8 %96 to i32
  %98 = icmp sle i32 %97, 90
  br i1 %98, label %113, label %99

99:                                               ; preds = %92, %85
  %100 = load i32, i32* %5, align 4
  %101 = sext i32 %100 to i64
  %102 = getelementptr inbounds [90 x i8], [90 x i8]* %6, i64 0, i64 %101
  %103 = load i8, i8* %102, align 1
  %104 = sext i8 %103 to i32
  %105 = icmp sge i32 %104, 48
  br i1 %105, label %106, label %114

106:                                              ; preds = %99
  %107 = load i32, i32* %5, align 4
  %108 = sext i32 %107 to i64
  %109 = getelementptr inbounds [90 x i8], [90 x i8]* %6, i64 0, i64 %108
  %110 = load i8, i8* %109, align 1
  %111 = sext i8 %110 to i32
  %112 = icmp sle i32 %111, 57
  br i1 %112, label %113, label %114

113:                                              ; preds = %106, %92, %80, %66
  br label %116

114:                                              ; preds = %106, %99
  %115 = call i32 (i8*, ...) @printf(i8* getelementptr inbounds ([3 x i8], [3 x i8]* @.str.1, i64 0, i64 0))
  br label %119

116:                                              ; preds = %113, %63
  %117 = load i32, i32* %5, align 4
  %118 = add nsw i32 %117, 1
  store i32 %118, i32* %5, align 4
  br label %21

119:                                              ; preds = %114, %64, %21
  %120 = load i32, i32* %5, align 4
  %121 = load i32, i32* %4, align 4
  %122 = icmp eq i32 %120, %121
  br i1 %122, label %123, label %125

123:                                              ; preds = %119
  %124 = call i32 (i8*, ...) @printf(i8* getelementptr inbounds ([3 x i8], [3 x i8]* @.str.2, i64 0, i64 0))
  br label %125

125:                                              ; preds = %123, %119
  br label %126

126:                                              ; preds = %125
  %127 = load i32, i32* %3, align 4
  %128 = add nsw i32 %127, 1
  store i32 %128, i32* %3, align 4
  br label %11

129:                                              ; preds = %11
  %130 = call i32 @getchar()
  %131 = call i32 @getchar()
  %132 = load i32, i32* %1, align 4
  ret i32 %132
}

declare dso_local i32 @__isoc99_scanf(i8*, ...) #1

declare dso_local i32 @gets(...) #1

; Function Attrs: nounwind readonly
declare dso_local i64 @strlen(i8*) #2

declare dso_local i32 @printf(i8*, ...) #1

declare dso_local i32 @getchar() #1


!llvm.module.flags = !{!0}
!llvm.ident = !{!1}

!0 = !{i32 1, !"wchar_size", i32 4}
!1 = !{!"clang version 10.0.0-4ubuntu1 "}
