; ModuleID = 'source-C-CXX/57/1194.c'
source_filename = "source-C-CXX/57/1194.c"
target datalayout = "e-m:e-p270:32:32-p271:32:32-p272:64:64-i64:64-f80:128-n8:16:32:64-S128"
target triple = "x86_64-pc-linux-gnu"

%struct._IO_FILE = type { i32, i8*, i8*, i8*, i8*, i8*, i8*, i8*, i8*, i8*, i8*, i8*, %struct._IO_marker*, %struct._IO_FILE*, i32, i32, i64, i16, i8, [1 x i8], i8*, i64, %struct._IO_codecvt*, %struct._IO_wide_data*, %struct._IO_FILE*, i8*, i64, i32, [20 x i8] }
%struct._IO_marker = type opaque
%struct._IO_codecvt = type opaque
%struct._IO_wide_data = type opaque

@.str = private unnamed_addr constant [3 x i8] c"%d\00", align 1
@stdin = external local_unnamed_addr global %struct._IO_FILE*, align 8
@str = private unnamed_addr constant [2 x i8] c"1\00", align 1
@str.4 = private unnamed_addr constant [2 x i8] c"0\00", align 1

; Function Attrs: nounwind sspstrong uwtable
define dso_local i32 @main() local_unnamed_addr #0 {
  %1 = alloca i32, align 4
  %2 = alloca [90 x i8], align 16
  %3 = alloca [2 x i8], align 1
  %4 = bitcast i32* %1 to i8*
  call void @llvm.lifetime.start.p0i8(i64 4, i8* nonnull %4) #6
  %5 = getelementptr inbounds [90 x i8], [90 x i8]* %2, i64 0, i64 0
  call void @llvm.lifetime.start.p0i8(i64 90, i8* nonnull %5) #6
  %6 = call i32 (i8*, ...) @__isoc99_scanf(i8* getelementptr inbounds ([3 x i8], [3 x i8]* @.str, i64 0, i64 0), i32* nonnull %1)
  %7 = getelementptr inbounds [2 x i8], [2 x i8]* %3, i64 0, i64 0
  call void @llvm.lifetime.start.p0i8(i64 2, i8* nonnull %7) #6
  %8 = call i32 (i8*, ...) bitcast (i32 (...)* @gets to i32 (i8*, ...)*)(i8* nonnull %7) #6
  %9 = load i32, i32* %1, align 4, !tbaa !5
  %10 = icmp sgt i32 %9, 0
  br i1 %10, label %11, label %62

11:                                               ; preds = %0, %58
  %12 = phi i32 [ %59, %58 ], [ 0, %0 ]
  %13 = call i32 (i8*, ...) bitcast (i32 (...)* @gets to i32 (i8*, ...)*)(i8* nonnull %5) #6
  %14 = call i64 @strlen(i8* noundef nonnull %5) #7
  %15 = trunc i64 %14 to i32
  %16 = load i8, i8* %5, align 16
  %17 = icmp slt i8 %16, 123
  %18 = icmp sgt i32 %15, 0
  br i1 %18, label %19, label %53

19:                                               ; preds = %11
  %20 = icmp eq i8 %16, 95
  %21 = and i8 %16, -33
  %22 = add i8 %21, -65
  %23 = icmp ult i8 %22, 26
  %24 = or i1 %23, %20
  br i1 %24, label %25, label %46

25:                                               ; preds = %19
  %26 = and i64 %14, 4294967295
  br label %27

27:                                               ; preds = %25, %43
  %28 = phi i64 [ 0, %25 ], [ %44, %43 ]
  %29 = icmp eq i64 %28, 0
  br i1 %29, label %43, label %30

30:                                               ; preds = %27
  %31 = getelementptr inbounds [90 x i8], [90 x i8]* %2, i64 0, i64 %28
  %32 = load i8, i8* %31, align 1, !tbaa !9
  %33 = icmp eq i8 %32, 95
  br i1 %33, label %43, label %34

34:                                               ; preds = %30
  %35 = icmp sgt i8 %32, 96
  %36 = select i1 %35, i1 %17, i1 false
  %37 = add i8 %32, -65
  %38 = icmp ult i8 %37, 26
  %39 = or i1 %38, %36
  %40 = add i8 %32, -48
  %41 = icmp ult i8 %40, 10
  %42 = select i1 %39, i1 true, i1 %41
  br i1 %42, label %43, label %48

43:                                               ; preds = %27, %34, %30
  %44 = add nuw nsw i64 %28, 1
  %45 = icmp eq i64 %44, %26
  br i1 %45, label %51, label %27, !llvm.loop !10

46:                                               ; preds = %19
  %47 = call i32 @puts(i8* nonnull dereferenceable(1) getelementptr inbounds ([2 x i8], [2 x i8]* @str.4, i64 0, i64 0))
  br label %53

48:                                               ; preds = %34
  %49 = trunc i64 %28 to i32
  %50 = call i32 @puts(i8* nonnull dereferenceable(1) getelementptr inbounds ([2 x i8], [2 x i8]* @str.4, i64 0, i64 0))
  br label %53

51:                                               ; preds = %43
  %52 = trunc i64 %14 to i32
  br label %53

53:                                               ; preds = %51, %11, %48, %46
  %54 = phi i32 [ %49, %48 ], [ 0, %46 ], [ 0, %11 ], [ %52, %51 ]
  %55 = icmp eq i32 %54, %15
  br i1 %55, label %56, label %58

56:                                               ; preds = %53
  %57 = call i32 @puts(i8* nonnull dereferenceable(1) getelementptr inbounds ([2 x i8], [2 x i8]* @str, i64 0, i64 0))
  br label %58

58:                                               ; preds = %53, %56
  %59 = add nuw nsw i32 %12, 1
  %60 = load i32, i32* %1, align 4, !tbaa !5
  %61 = icmp slt i32 %59, %60
  br i1 %61, label %11, label %62, !llvm.loop !12

62:                                               ; preds = %58, %0
  %63 = load %struct._IO_FILE*, %struct._IO_FILE** @stdin, align 8, !tbaa !13
  %64 = call i32 @getc(%struct._IO_FILE* %63) #6
  %65 = load %struct._IO_FILE*, %struct._IO_FILE** @stdin, align 8, !tbaa !13
  %66 = call i32 @getc(%struct._IO_FILE* %65) #6
  call void @llvm.lifetime.end.p0i8(i64 2, i8* nonnull %7) #6
  call void @llvm.lifetime.end.p0i8(i64 90, i8* nonnull %5) #6
  call void @llvm.lifetime.end.p0i8(i64 4, i8* nonnull %4) #6
  ret i32 0
}

; Function Attrs: argmemonly mustprogress nofree nosync nounwind willreturn
declare void @llvm.lifetime.start.p0i8(i64 immarg, i8* nocapture) #1

; Function Attrs: nofree nounwind
declare noundef i32 @__isoc99_scanf(i8* nocapture noundef readonly, ...) local_unnamed_addr #2

declare i32 @gets(...) local_unnamed_addr #3

; Function Attrs: argmemonly mustprogress nofree nounwind readonly willreturn
declare i64 @strlen(i8* nocapture) local_unnamed_addr #4

; Function Attrs: argmemonly mustprogress nofree nosync nounwind willreturn
declare void @llvm.lifetime.end.p0i8(i64 immarg, i8* nocapture) #1

; Function Attrs: nofree nounwind
declare noundef i32 @getc(%struct._IO_FILE* nocapture noundef) local_unnamed_addr #2

; Function Attrs: nofree nounwind
declare noundef i32 @puts(i8* nocapture noundef readonly) local_unnamed_addr #5


!llvm.module.flags = !{!0, !1, !2, !3}
!llvm.ident = !{!4}

!0 = !{i32 1, !"wchar_size", i32 4}
!1 = !{i32 7, !"PIC Level", i32 2}
!2 = !{i32 7, !"PIE Level", i32 2}
!3 = !{i32 7, !"uwtable", i32 1}
!4 = !{!"clang version 13.0.0"}
!5 = !{!6, !6, i64 0}
!6 = !{!"int", !7, i64 0}
!7 = !{!"omnipotent char", !8, i64 0}
!8 = !{!"Simple C/C++ TBAA"}
!9 = !{!7, !7, i64 0}
!10 = distinct !{!10, !11}
!11 = !{!"llvm.loop.mustprogress"}
!12 = distinct !{!12, !11}
!13 = !{!14, !14, i64 0}
!14 = !{!"any pointer", !7, i64 0}
